target datalayout = "e-m:e-p270:32:32-p271:32:32-p272:64:64-i64:64-i128:128-f80:128-n8:16:32:64-S128"
target triple = "x86_64-unknown-linux-gnu"

%"class.std::basic_string_view" = type { i64, ptr }
%"class.absl::lts_20230802::flat_hash_map" = type { %"class.absl::lts_20230802::container_internal::raw_hash_map" }
%"class.absl::lts_20230802::container_internal::raw_hash_map" = type { %"class.absl::lts_20230802::container_internal::raw_hash_set.28" }
%"class.absl::lts_20230802::container_internal::raw_hash_set.28" = type { %"class.absl::lts_20230802::container_internal::CompressedTuple.29" }
%"class.absl::lts_20230802::container_internal::CompressedTuple.29" = type { %"struct.absl::lts_20230802::container_internal::internal_compressed_tuple::CompressedTupleImpl.30" }
%"struct.absl::lts_20230802::container_internal::internal_compressed_tuple::CompressedTupleImpl.30" = type { %"struct.absl::lts_20230802::container_internal::internal_compressed_tuple::Storage" }
%"struct.absl::lts_20230802::container_internal::internal_compressed_tuple::Storage" = type { %"class.absl::lts_20230802::container_internal::CommonFields" }
%"class.absl::lts_20230802::container_internal::CommonFields" = type { ptr, ptr, i64, %"class.absl::lts_20230802::container_internal::CompressedTuple.10" }
%"class.absl::lts_20230802::container_internal::CompressedTuple.10" = type { %"struct.absl::lts_20230802::container_internal::internal_compressed_tuple::CompressedTupleImpl.11" }
%"struct.absl::lts_20230802::container_internal::internal_compressed_tuple::CompressedTupleImpl.11" = type { %"struct.absl::lts_20230802::container_internal::internal_compressed_tuple::Storage.12" }
%"struct.absl::lts_20230802::container_internal::internal_compressed_tuple::Storage.12" = type { i64 }
%"class.absl::lts_20230802::Span" = type { ptr, i64 }
%class.anon.248 = type { ptr, ptr }
%"class.google::protobuf::compiler::cpp::FieldGeneratorBase" = type <{ ptr, ptr, ptr, ptr, %"class.absl::lts_20230802::flat_hash_map", i8, i8, i8, i8, i8, i8, i8, i8, i8, i8, i8, i8, i8, [3 x i8], i32, i8, [3 x i8] }>
%class.anon.255 = type <{ %class.anon.248, i8, [7 x i8] }>

@.str.64 = private unnamed_addr constant [26 x i8] c"\0A      $set_hasbit$;\0A    \00", align 1
@.str.65 = private unnamed_addr constant [120 x i8] c"\0A    if ($not_has_field$) {\0A      clear_$oneof_name$();\0A\0A      set_has_$name$();\0A      $field_$.InitDefault();\0A    }\0A  \00", align 1

; Function Attrs: mustprogress nounwind uwtable
define linkonce_odr hidden void @_ZN4absl12lts_202308024SpanIKN6google8protobuf2io7Printer3SubEEC2EPS7_m(ptr noundef nonnull align 8 dereferenceable(16) %this, ptr noundef %array, i64 noundef %length) unnamed_addr #5 comdat align 2 {
entry:
  %this.addr = alloca ptr, align 8
  %array.addr = alloca ptr, align 8
  %length.addr = alloca i64, align 8
  store ptr %this, ptr %this.addr, align 8
  store ptr %array, ptr %array.addr, align 8
  store i64 %length, ptr %length.addr, align 8
  %this1 = load ptr, ptr %this.addr, align 8
  %ptr_ = getelementptr inbounds %"class.absl::lts_20230802::Span", ptr %this1, i32 0, i32 0
  %0 = load ptr, ptr %array.addr, align 8
  store ptr %0, ptr %ptr_, align 8
  %len_ = getelementptr inbounds %"class.absl::lts_20230802::Span", ptr %this1, i32 0, i32 1
  %1 = load i64, ptr %length.addr, align 8
  store i64 %1, ptr %len_, align 8
  ret void
}

; Function Attrs: mustprogress nounwind uwtable
define linkonce_odr hidden void @_ZN4absl12lts_202308024SpanIKN6google8protobuf2io7Printer3SubEEC2Ev(ptr noundef nonnull align 8 dereferenceable(16) %this) unnamed_addr #5 comdat align 2 {
entry:
  %this.addr = alloca ptr, align 8
  store ptr %this, ptr %this.addr, align 8
  %this1 = load ptr, ptr %this.addr, align 8
  call void @_ZN4absl12lts_202308024SpanIKN6google8protobuf2io7Printer3SubEEC2EPS7_m(ptr noundef nonnull align 8 dereferenceable(16) %this1, ptr noundef null, i64 noundef 0) #3
  ret void
}

; Function Attrs: noreturn nounwind uwtable
define linkonce_odr hidden void @__clang_call_terminate(ptr noundef %0) #8 comdat {
  %2 = call ptr @__cxa_begin_catch(ptr %0) #3
  call void @_ZSt9terminatev() #22
  unreachable
}

; Function Attrs: mustprogress nounwind uwtable
define linkonce_odr hidden noundef i64 @_ZNSt11char_traitsIcE6lengthEPKc(ptr noundef %__s) #5 comdat align 2 {
entry:
  %__s.addr = alloca ptr, align 8
  store ptr %__s, ptr %__s.addr, align 8
  %0 = load ptr, ptr %__s.addr, align 8
  %call = call i64 @strlen(ptr noundef %0) #3
  ret i64 %call
}

; Function Attrs: mustprogress uwtable
define linkonce_odr hidden void @_ZN6google8protobuf2io7Printer4EmitESt17basic_string_viewIcSt11char_traitsIcEENS2_14SourceLocationE(ptr noundef nonnull align 8 dereferenceable(256) %this, i64 %format.coerce0, ptr %format.coerce1) #4 comdat align 2 {
entry:
  %format = alloca %"class.std::basic_string_view", align 8
  %this.addr = alloca ptr, align 8
  %agg.tmp = alloca %"class.absl::lts_20230802::Span", align 8
  %agg.tmp2 = alloca %"class.std::basic_string_view", align 8
  %0 = getelementptr inbounds { i64, ptr }, ptr %format, i32 0, i32 0
  store i64 %format.coerce0, ptr %0, align 8
  %1 = getelementptr inbounds { i64, ptr }, ptr %format, i32 0, i32 1
  store ptr %format.coerce1, ptr %1, align 8
  store ptr %this, ptr %this.addr, align 8
  %this1 = load ptr, ptr %this.addr, align 8
  call void @_ZN4absl12lts_202308024SpanIKN6google8protobuf2io7Printer3SubEEC2Ev(ptr noundef nonnull align 8 dereferenceable(16) %agg.tmp) #3
  call void @llvm.memcpy.p0.p0.i64(ptr align 8 %agg.tmp2, ptr align 8 %format, i64 16, i1 false)
  %2 = getelementptr inbounds { ptr, i64 }, ptr %agg.tmp, i32 0, i32 0
  %3 = load ptr, ptr %2, align 8
  %4 = getelementptr inbounds { ptr, i64 }, ptr %agg.tmp, i32 0, i32 1
  %5 = load i64, ptr %4, align 8
  %6 = getelementptr inbounds { i64, ptr }, ptr %agg.tmp2, i32 0, i32 0
  %7 = load i64, ptr %6, align 8
  %8 = getelementptr inbounds { i64, ptr }, ptr %agg.tmp2, i32 0, i32 1
  %9 = load ptr, ptr %8, align 8
  call void @_ZN6google8protobuf2io7Printer4EmitEN4absl12lts_202308024SpanIKNS2_3SubEEESt17basic_string_viewIcSt11char_traitsIcEENS2_14SourceLocationE(ptr noundef nonnull align 8 dereferenceable(256) %this1, ptr %3, i64 %5, i64 %7, ptr %9)
  ret void
}

; Function Attrs: mustprogress nounwind uwtable
define linkonce_odr hidden void @_ZN6google8protobuf2io7Printer14SourceLocation7currentEv() #5 comdat align 2 {
entry:
  ret void
}

; Function Attrs: mustprogress nounwind uwtable
define linkonce_odr hidden void @_ZNSt17basic_string_viewIcSt11char_traitsIcEEC2EPKc(ptr noundef nonnull align 8 dereferenceable(16) %this, ptr noundef nonnull %__str) unnamed_addr #5 comdat align 2 personality ptr @__gxx_personality_v0 {
entry:
  %this.addr = alloca ptr, align 8
  %__str.addr = alloca ptr, align 8
  store ptr %this, ptr %this.addr, align 8
  store ptr %__str, ptr %__str.addr, align 8
  %this1 = load ptr, ptr %this.addr, align 8
  %_M_len = getelementptr inbounds %"class.std::basic_string_view", ptr %this1, i32 0, i32 0
  %0 = load ptr, ptr %__str.addr, align 8
  %call = invoke noundef i64 @_ZNSt11char_traitsIcE6lengthEPKc(ptr noundef %0)
          to label %invoke.cont unwind label %terminate.lpad

invoke.cont:                                      ; preds = %entry
  store i64 %call, ptr %_M_len, align 8
  %_M_str = getelementptr inbounds %"class.std::basic_string_view", ptr %this1, i32 0, i32 1
  %1 = load ptr, ptr %__str.addr, align 8
  store ptr %1, ptr %_M_str, align 8
  ret void

terminate.lpad:                                   ; preds = %entry
  %2 = landingpad { ptr, i32 }
          catch ptr null
  %3 = extractvalue { ptr, i32 } %2, 0
  call void @__clang_call_terminate(ptr %3) #22
  unreachable
}

; Function Attrs: mustprogress uwtable
define internal void @_ZN6google8protobuf8compiler3cpp12_GLOBAL__N_115UpdateHasbitSetEPNS0_2io7PrinterEb(ptr noundef %p, i1 noundef zeroext %is_oneof) #4 {
entry:
  %p.addr = alloca ptr, align 8
  %is_oneof.addr = alloca i8, align 1
  %agg.tmp = alloca %"class.std::basic_string_view", align 8
  %agg.tmp2 = alloca %"class.std::basic_string_view", align 8
  store ptr %p, ptr %p.addr, align 8
  %frombool = zext i1 %is_oneof to i8
  store i8 %frombool, ptr %is_oneof.addr, align 1
  %0 = load i8, ptr %is_oneof.addr, align 1
  %tobool = trunc i8 %0 to i1
  br i1 %tobool, label %if.end, label %if.then

if.then:                                          ; preds = %entry
  %1 = load ptr, ptr %p.addr, align 8
  call void @_ZNSt17basic_string_viewIcSt11char_traitsIcEEC2EPKc(ptr noundef nonnull align 8 dereferenceable(16) %agg.tmp, ptr noundef @.str.64) #3
  call void @_ZN6google8protobuf2io7Printer14SourceLocation7currentEv()
  %2 = getelementptr inbounds { i64, ptr }, ptr %agg.tmp, i32 0, i32 0
  %3 = load i64, ptr %2, align 8
  %4 = getelementptr inbounds { i64, ptr }, ptr %agg.tmp, i32 0, i32 1
  %5 = load ptr, ptr %4, align 8
  call void @_ZN6google8protobuf2io7Printer4EmitESt17basic_string_viewIcSt11char_traitsIcEENS2_14SourceLocationE(ptr noundef nonnull align 8 dereferenceable(256) %1, i64 %3, ptr %5)
  br label %return

if.end:                                           ; preds = %entry
  %6 = load ptr, ptr %p.addr, align 8
  call void @_ZNSt17basic_string_viewIcSt11char_traitsIcEEC2EPKc(ptr noundef nonnull align 8 dereferenceable(16) %agg.tmp2, ptr noundef @.str.65) #3
  call void @_ZN6google8protobuf2io7Printer14SourceLocation7currentEv()
  %7 = getelementptr inbounds { i64, ptr }, ptr %agg.tmp2, i32 0, i32 0
  %8 = load i64, ptr %7, align 8
  %9 = getelementptr inbounds { i64, ptr }, ptr %agg.tmp2, i32 0, i32 1
  %10 = load ptr, ptr %9, align 8
  call void @_ZN6google8protobuf2io7Printer4EmitESt17basic_string_viewIcSt11char_traitsIcEENS2_14SourceLocationE(ptr noundef nonnull align 8 dereferenceable(256) %6, i64 %8, ptr %10)
  br label %return

return:                                           ; preds = %if.end, %if.then
  ret void
}

; Function Attrs: mustprogress nounwind uwtable
define linkonce_odr hidden noundef zeroext i1 @_ZNK6google8protobuf8compiler3cpp18FieldGeneratorBase8is_oneofEv(ptr noundef nonnull align 8 dereferenceable(85) %this) #5 comdat align 2 {
entry:
  %this.addr = alloca ptr, align 8
  store ptr %this, ptr %this.addr, align 8
  %this1 = load ptr, ptr %this.addr, align 8
  %is_oneof_ = getelementptr inbounds %"class.google::protobuf::compiler::cpp::FieldGeneratorBase", ptr %this1, i32 0, i32 17
  %0 = load i8, ptr %is_oneof_, align 4
  %tobool = trunc i8 %0 to i1
  ret i1 %tobool
}

; Function Attrs: mustprogress uwtable
define internal void @"_ZZNK6google8protobuf8compiler3cpp12_GLOBAL__N_114SingularString33GenerateInlineAccessorDefinitionsEPNS0_2io7PrinterEENK3$_1clEv"(ptr noundef nonnull align 8 dereferenceable(16) %this) #4 align 2 {
entry:
  %this.addr = alloca ptr, align 8
  store ptr %this, ptr %this.addr, align 8
  %this1 = load ptr, ptr %this.addr, align 8
  %0 = getelementptr inbounds %class.anon.248, ptr %this1, i32 0, i32 1
  %1 = load ptr, ptr %0, align 8
  %2 = getelementptr inbounds %class.anon.248, ptr %this1, i32 0, i32 0
  %3 = load ptr, ptr %2, align 8
  %4 = load ptr, ptr %3, align 8
  %call = call noundef zeroext i1 @_ZNK6google8protobuf8compiler3cpp18FieldGeneratorBase8is_oneofEv(ptr noundef nonnull align 8 dereferenceable(85) %1)
  call void @_ZN6google8protobuf8compiler3cpp12_GLOBAL__N_115UpdateHasbitSetEPNS0_2io7PrinterEb(ptr noundef %4, i1 noundef zeroext %call)
  ret void
}

; Function Attrs: mustprogress uwtable
define internal noundef zeroext i1 @"_ZZN6google8protobuf2io7Printer9ValueImplILb1EE18ToStringOrCallbackIZNKS0_8compiler3cpp12_GLOBAL__N_114SingularString33GenerateInlineAccessorDefinitionsEPS2_E3$_1vEESt7variantIJNSt7__cxx1112basic_stringIcSt11char_traitsIcESaIcEEESt8functionIFbvEEEEOT_NS4_5Rank2EENUlvE_clEv"(ptr noundef nonnull align 8 dereferenceable(17) %this) #4 align 2 {
entry:
  %retval = alloca i1, align 1
  %this.addr = alloca ptr, align 8
  store ptr %this, ptr %this.addr, align 8
  %this1 = load ptr, ptr %this.addr, align 8
  %0 = getelementptr inbounds %class.anon.255, ptr %this1, i32 0, i32 1
  %1 = load i8, ptr %0, align 8
  %tobool = trunc i8 %1 to i1
  br i1 %tobool, label %if.then, label %if.end

if.then:                                          ; preds = %entry
  store i1 false, ptr %retval, align 1
  br label %return

if.end:                                           ; preds = %entry
  %2 = getelementptr inbounds %class.anon.255, ptr %this1, i32 0, i32 1
  store i8 1, ptr %2, align 8
  %3 = getelementptr inbounds %class.anon.255, ptr %this1, i32 0, i32 0
  call void @"_ZZNK6google8protobuf8compiler3cpp12_GLOBAL__N_114SingularString33GenerateInlineAccessorDefinitionsEPNS0_2io7PrinterEENK3$_1clEv"(ptr noundef nonnull align 8 dereferenceable(16) %3)
  %4 = getelementptr inbounds %class.anon.255, ptr %this1, i32 0, i32 1
  store i8 0, ptr %4, align 8
  store i1 true, ptr %retval, align 1
  br label %return

return:                                           ; preds = %if.end, %if.then
  %5 = load i1, ptr %retval, align 1
  ret i1 %5
}

; Function Attrs: mustprogress nounwind uwtable
define linkonce_odr hidden noundef ptr @_ZNKSt9_Any_data9_M_accessEv(ptr noundef nonnull align 8 dereferenceable(16) %this) #5 comdat align 2 {
entry:
  %this.addr = alloca ptr, align 8
  store ptr %this, ptr %this.addr, align 8
  %this1 = load ptr, ptr %this.addr, align 8
  %arrayidx = getelementptr inbounds [16 x i8], ptr %this1, i64 0, i64 0
  ret ptr %arrayidx
}

; Function Attrs: mustprogress uwtable
define internal noundef zeroext i1 @"_ZSt13__invoke_implIbRZN6google8protobuf2io7Printer9ValueImplILb1EE18ToStringOrCallbackIZNKS1_8compiler3cpp12_GLOBAL__N_114SingularString33GenerateInlineAccessorDefinitionsEPS3_E3$_1vEESt7variantIJNSt7__cxx1112basic_stringIcSt11char_traitsIcESaIcEEESt8functionIFbvEEEEOT_NS5_5Rank2EEUlvE_JEESO_St14__invoke_otherOT0_DpOT1_"(ptr noundef nonnull align 8 dereferenceable(17) %__f) #4 {
entry:
  %__f.addr = alloca ptr, align 8
  store ptr %__f, ptr %__f.addr, align 8
  %0 = load ptr, ptr %__f.addr, align 8
  %call = call noundef zeroext i1 @"_ZZN6google8protobuf2io7Printer9ValueImplILb1EE18ToStringOrCallbackIZNKS0_8compiler3cpp12_GLOBAL__N_114SingularString33GenerateInlineAccessorDefinitionsEPS2_E3$_1vEESt7variantIJNSt7__cxx1112basic_stringIcSt11char_traitsIcESaIcEEESt8functionIFbvEEEEOT_NS4_5Rank2EENUlvE_clEv"(ptr noundef nonnull align 8 dereferenceable(17) %0)
  ret i1 %call
}

; Function Attrs: mustprogress nounwind uwtable
define internal noundef nonnull align 8 dereferenceable(8) ptr @"_ZNKSt9_Any_data9_M_accessIPZN6google8protobuf2io7Printer9ValueImplILb1EE18ToStringOrCallbackIZNKS2_8compiler3cpp12_GLOBAL__N_114SingularString33GenerateInlineAccessorDefinitionsEPS4_E3$_1vEESt7variantIJNSt7__cxx1112basic_stringIcSt11char_traitsIcESaIcEEESt8functionIFbvEEEEOT_NS6_5Rank2EEUlvE_EERKSP_v"(ptr noundef nonnull align 8 dereferenceable(16) %this) #5 align 2 {
entry:
  %this.addr = alloca ptr, align 8
  store ptr %this, ptr %this.addr, align 8
  %this1 = load ptr, ptr %this.addr, align 8
  %call = call noundef ptr @_ZNKSt9_Any_data9_M_accessEv(ptr noundef nonnull align 8 dereferenceable(16) %this1) #3
  ret ptr %call
}

; Function Attrs: mustprogress uwtable
define internal noundef zeroext i1 @"_ZSt10__invoke_rIbRZN6google8protobuf2io7Printer9ValueImplILb1EE18ToStringOrCallbackIZNKS1_8compiler3cpp12_GLOBAL__N_114SingularString33GenerateInlineAccessorDefinitionsEPS3_E3$_1vEESt7variantIJNSt7__cxx1112basic_stringIcSt11char_traitsIcESaIcEEESt8functionIFbvEEEEOT_NS5_5Rank2EEUlvE_JEENSt9enable_ifIX16is_invocable_r_vISO_T0_DpT1_EESO_E4typeEOSU_DpOSV_"(ptr noundef nonnull align 8 dereferenceable(17) %__fn) #4 {
entry:
  %__fn.addr = alloca ptr, align 8
  store ptr %__fn, ptr %__fn.addr, align 8
  %0 = load ptr, ptr %__fn.addr, align 8
  %call = call noundef zeroext i1 @"_ZSt13__invoke_implIbRZN6google8protobuf2io7Printer9ValueImplILb1EE18ToStringOrCallbackIZNKS1_8compiler3cpp12_GLOBAL__N_114SingularString33GenerateInlineAccessorDefinitionsEPS3_E3$_1vEESt7variantIJNSt7__cxx1112basic_stringIcSt11char_traitsIcESaIcEEESt8functionIFbvEEEEOT_NS5_5Rank2EEUlvE_JEESO_St14__invoke_otherOT0_DpOT1_"(ptr noundef nonnull align 8 dereferenceable(17) %0)
  ret i1 %call
}

; Function Attrs: mustprogress nounwind uwtable
define internal noundef ptr @"_ZNSt14_Function_base13_Base_managerIZN6google8protobuf2io7Printer9ValueImplILb1EE18ToStringOrCallbackIZNKS2_8compiler3cpp12_GLOBAL__N_114SingularString33GenerateInlineAccessorDefinitionsEPS4_E3$_1vEESt7variantIJNSt7__cxx1112basic_stringIcSt11char_traitsIcESaIcEEESt8functionIFbvEEEEOT_NS6_5Rank2EEUlvE_E14_M_get_pointerERKSt9_Any_data"(ptr noundef nonnull align 8 dereferenceable(16) %__source) #5 align 2 {
entry:
  %__source.addr = alloca ptr, align 8
  store ptr %__source, ptr %__source.addr, align 8
  %0 = load ptr, ptr %__source.addr, align 8
  %call = call noundef nonnull align 8 dereferenceable(8) ptr @"_ZNKSt9_Any_data9_M_accessIPZN6google8protobuf2io7Printer9ValueImplILb1EE18ToStringOrCallbackIZNKS2_8compiler3cpp12_GLOBAL__N_114SingularString33GenerateInlineAccessorDefinitionsEPS4_E3$_1vEESt7variantIJNSt7__cxx1112basic_stringIcSt11char_traitsIcESaIcEEESt8functionIFbvEEEEOT_NS6_5Rank2EEUlvE_EERKSP_v"(ptr noundef nonnull align 8 dereferenceable(16) %0) #3
  %1 = load ptr, ptr %call, align 8
  ret ptr %1
}

; Function Attrs: mustprogress uwtable
define internal noundef zeroext i1 @"_ZNSt17_Function_handlerIFbvEZN6google8protobuf2io7Printer9ValueImplILb1EE18ToStringOrCallbackIZNKS2_8compiler3cpp12_GLOBAL__N_114SingularString33GenerateInlineAccessorDefinitionsEPS4_E3$_1vEESt7variantIJNSt7__cxx1112basic_stringIcSt11char_traitsIcESaIcEEESt8functionIS0_EEEOT_NS6_5Rank2EEUlvE_E9_M_invokeERKSt9_Any_data"(ptr noundef nonnull align 8 dereferenceable(16) %__functor) #4 align 2 {
entry:
  %__functor.addr = alloca ptr, align 8
  store ptr %__functor, ptr %__functor.addr, align 8
  %0 = load ptr, ptr %__functor.addr, align 8
  %call = call noundef ptr @"_ZNSt14_Function_base13_Base_managerIZN6google8protobuf2io7Printer9ValueImplILb1EE18ToStringOrCallbackIZNKS2_8compiler3cpp12_GLOBAL__N_114SingularString33GenerateInlineAccessorDefinitionsEPS4_E3$_1vEESt7variantIJNSt7__cxx1112basic_stringIcSt11char_traitsIcESaIcEEESt8functionIFbvEEEEOT_NS6_5Rank2EEUlvE_E14_M_get_pointerERKSt9_Any_data"(ptr noundef nonnull align 8 dereferenceable(16) %0) #3
  %call1 = call noundef zeroext i1 @"_ZSt10__invoke_rIbRZN6google8protobuf2io7Printer9ValueImplILb1EE18ToStringOrCallbackIZNKS1_8compiler3cpp12_GLOBAL__N_114SingularString33GenerateInlineAccessorDefinitionsEPS3_E3$_1vEESt7variantIJNSt7__cxx1112basic_stringIcSt11char_traitsIcESaIcEEESt8functionIFbvEEEEOT_NS5_5Rank2EEUlvE_JEENSt9enable_ifIX16is_invocable_r_vISO_T0_DpT1_EESO_E4typeEOSU_DpOSV_"(ptr noundef nonnull align 8 dereferenceable(17) %call)
  ret i1 %call1
}